target datalayout = "e-m:e-p270:32:32-p271:32:32-p272:64:64-i64:64-i128:128-f80:128-n8:16:32:64-S128"
target triple = "x86_64-pc-linux-gnu"

@config_file = internal global ptr null, align 8
@.str.18 = private unnamed_addr constant [30 x i8] c"../openssl/test/threadstest.c\00", align 1
@.str.44 = private unnamed_addr constant [14 x i8] c"multi_success\00", align 1
@multi_success = internal global i32 0, align 4
@multi_libctx = internal global ptr null, align 8
@multi_num_threads = internal global i64 0, align 8
@multi_threads = internal global [10 x i64] zeroinitializer, align 16
@multi_provider = internal global [5 x ptr] zeroinitializer, align 16
@.str.45 = private unnamed_addr constant [62 x i8] c"test_get_libctx(&multi_libctx, NULL, config_file, NULL, NULL)\00", align 1
@.str.46 = private unnamed_addr constant [2 x i8] c"n\00", align 1
@.str.47 = private unnamed_addr constant [18 x i8] c"MAXIMUM_PROVIDERS\00", align 1
@.str.48 = private unnamed_addr constant [67 x i8] c"multi_provider[n] = OSSL_PROVIDER_load(multi_libctx, providers[n])\00", align 1
@.str.49 = private unnamed_addr constant [22 x i8] c"multi_num_threads + n\00", align 1
@.str.50 = private unnamed_addr constant [16 x i8] c"MAXIMUM_THREADS\00", align 1
@.str.51 = private unnamed_addr constant [61 x i8] c"run_thread(multi_threads + multi_num_threads++, thread_func)\00", align 1
@.str.52 = private unnamed_addr constant [34 x i8] c"wait_for_thread(multi_threads[i])\00", align 1
@.str.53 = private unnamed_addr constant [9 x i8] c"SHA2-256\00", align 1
@.str.54 = private unnamed_addr constant [8 x i8] c"default\00", align 1
@.str.122 = private unnamed_addr constant [27 x i8] c"OSSL_PROVIDER_unload(prov)\00", align 1
@.str.149 = private unnamed_addr constant [51 x i8] c"prov = OSSL_PROVIDER_load(multi_libctx, \22default\22)\00", align 1
@.str.150 = private unnamed_addr constant [54 x i8] c"sha256 = EVP_MD_fetch(multi_libctx, \22SHA2-256\22, NULL)\00", align 1

; Function Attrs: nounwind uwtable
define internal i32 @wait_for_thread(i64 noundef %0) #0 {
  %2 = alloca i64, align 8
  store i64 %0, ptr %2, align 8, !tbaa !14
  %3 = load i64, ptr %2, align 8, !tbaa !14
  %4 = call i32 @pthread_join(i64 noundef %3, ptr noundef null)
  %5 = icmp eq i32 %4, 0
  %6 = zext i1 %5 to i32
  ret i32 %6
}

; Function Attrs: nounwind uwtable
define internal i32 @run_thread(ptr noundef %0, ptr noundef %1) #0 {
  %3 = alloca ptr, align 8
  %4 = alloca ptr, align 8
  store ptr %0, ptr %3, align 8, !tbaa !36
  store ptr %1, ptr %4, align 8, !tbaa !13
  %5 = load ptr, ptr %3, align 8, !tbaa !36
  %6 = load ptr, ptr %4, align 8, !tbaa !13
  %7 = call i32 @pthread_create(ptr noundef %5, ptr noundef null, ptr noundef @thread_run, ptr noundef %6) #10
  %8 = icmp eq i32 %7, 0
  %9 = zext i1 %8 to i32
  ret i32 %9
}

; Function Attrs: nounwind uwtable
define internal void @thead_teardown_libctx() #0 {
  %1 = alloca ptr, align 8
  call void @llvm.lifetime.start.p0(i64 8, ptr %1) #10
  store ptr @multi_provider, ptr %1, align 8, !tbaa !33
  br label %2

2:                                                ; preds = %10, %0
  %3 = load ptr, ptr %1, align 8, !tbaa !33
  %4 = load ptr, ptr %3, align 8, !tbaa !16
  %5 = icmp ne ptr %4, null
  br i1 %5, label %6, label %13

6:                                                ; preds = %2
  %7 = load ptr, ptr %1, align 8, !tbaa !33
  %8 = load ptr, ptr %7, align 8, !tbaa !16
  %9 = call i32 @OSSL_PROVIDER_unload(ptr noundef %8)
  br label %10

10:                                               ; preds = %6
  %11 = load ptr, ptr %1, align 8, !tbaa !33
  %12 = getelementptr inbounds nuw ptr, ptr %11, i32 1
  store ptr %12, ptr %1, align 8, !tbaa !33
  br label %2, !llvm.loop !35

13:                                               ; preds = %2
  %14 = load ptr, ptr @multi_libctx, align 8, !tbaa !20
  call void @OSSL_LIB_CTX_free(ptr noundef %14)
  call void @multi_intialise()
  call void @llvm.lifetime.end.p0(i64 8, ptr %1) #10
  ret void
}

; Function Attrs: nounwind uwtable
define internal i32 @teardown_threads() #0 {
  %1 = alloca i32, align 4
  %2 = alloca i64, align 8
  %3 = alloca i32, align 4
  call void @llvm.lifetime.start.p0(i64 8, ptr %2) #10
  store i64 0, ptr %2, align 8, !tbaa !14
  br label %4

4:                                                ; preds = %19, %0
  %5 = load i64, ptr %2, align 8, !tbaa !14
  %6 = load i64, ptr @multi_num_threads, align 8, !tbaa !14
  %7 = icmp ult i64 %5, %6
  br i1 %7, label %8, label %22

8:                                                ; preds = %4
  %9 = load i64, ptr %2, align 8, !tbaa !14
  %10 = getelementptr inbounds nuw [10 x i64], ptr @multi_threads, i64 0, i64 %9
  %11 = load i64, ptr %10, align 8, !tbaa !14
  %12 = call i32 @wait_for_thread(i64 noundef %11)
  %13 = icmp ne i32 %12, 0
  %14 = zext i1 %13 to i32
  %15 = call i32 @test_true(ptr noundef @.str.18, i32 noundef 771, ptr noundef @.str.52, i32 noundef %14)
  %16 = icmp ne i32 %15, 0
  br i1 %16, label %18, label %17

17:                                               ; preds = %8
  store i32 0, ptr %1, align 4
  store i32 1, ptr %3, align 4
  br label %23

18:                                               ; preds = %8
  br label %19

19:                                               ; preds = %18
  %20 = load i64, ptr %2, align 8, !tbaa !14
  %21 = add i64 %20, 1
  store i64 %21, ptr %2, align 8, !tbaa !14
  br label %4, !llvm.loop !32

22:                                               ; preds = %4
  store i32 1, ptr %1, align 4
  store i32 1, ptr %3, align 4
  br label %23

23:                                               ; preds = %22, %17
  call void @llvm.lifetime.end.p0(i64 8, ptr %2) #10
  %24 = load i32, ptr %1, align 4
  ret i32 %24
}

; Function Attrs: nounwind uwtable
define internal i32 @start_threads(i64 noundef %0, ptr noundef %1) #0 {
  %3 = alloca i32, align 4
  %4 = alloca i64, align 8
  %5 = alloca ptr, align 8
  %6 = alloca i64, align 8
  %7 = alloca i32, align 4
  store i64 %0, ptr %4, align 8, !tbaa !14
  store ptr %1, ptr %5, align 8, !tbaa !13
  call void @llvm.lifetime.start.p0(i64 8, ptr %6) #10
  %8 = load i64, ptr @multi_num_threads, align 8, !tbaa !14
  %9 = load i64, ptr %4, align 8, !tbaa !14
  %10 = add i64 %8, %9
  %11 = call i32 @test_size_t_le(ptr noundef @.str.18, i32 noundef 780, ptr noundef @.str.49, ptr noundef @.str.50, i64 noundef %10, i64 noundef 10)
  %12 = icmp ne i32 %11, 0
  br i1 %12, label %14, label %13

13:                                               ; preds = %2
  store i32 0, ptr %3, align 4
  store i32 1, ptr %7, align 4
  br label %35

14:                                               ; preds = %2
  store i64 0, ptr %6, align 8, !tbaa !14
  br label %15

15:                                               ; preds = %31, %14
  %16 = load i64, ptr %6, align 8, !tbaa !14
  %17 = load i64, ptr %4, align 8, !tbaa !14
  %18 = icmp ult i64 %16, %17
  br i1 %18, label %19, label %34

19:                                               ; preds = %15
  %20 = load i64, ptr @multi_num_threads, align 8, !tbaa !14
  %21 = add i64 %20, 1
  store i64 %21, ptr @multi_num_threads, align 8, !tbaa !14
  %22 = getelementptr inbounds nuw i64, ptr @multi_threads, i64 %20
  %23 = load ptr, ptr %5, align 8, !tbaa !13
  %24 = call i32 @run_thread(ptr noundef %22, ptr noundef %23)
  %25 = icmp ne i32 %24, 0
  %26 = zext i1 %25 to i32
  %27 = call i32 @test_true(ptr noundef @.str.18, i32 noundef 784, ptr noundef @.str.51, i32 noundef %26)
  %28 = icmp ne i32 %27, 0
  br i1 %28, label %30, label %29

29:                                               ; preds = %19
  store i32 0, ptr %3, align 4
  store i32 1, ptr %7, align 4
  br label %35

30:                                               ; preds = %19
  br label %31

31:                                               ; preds = %30
  %32 = load i64, ptr %6, align 8, !tbaa !14
  %33 = add i64 %32, 1
  store i64 %33, ptr %6, align 8, !tbaa !14
  br label %15, !llvm.loop !31

34:                                               ; preds = %15
  store i32 1, ptr %3, align 4
  store i32 1, ptr %7, align 4
  br label %35

35:                                               ; preds = %34, %29, %13
  call void @llvm.lifetime.end.p0(i64 8, ptr %6) #10
  %36 = load i32, ptr %3, align 4
  ret i32 %36
}

; Function Attrs: nounwind uwtable
define internal i32 @thread_setup_libctx(i32 noundef %0, ptr noundef %1) #0 {
  %3 = alloca i32, align 4
  %4 = alloca i32, align 4
  %5 = alloca ptr, align 8
  %6 = alloca i64, align 8
  %7 = alloca i32, align 4
  store i32 %0, ptr %4, align 4, !tbaa !4
  store ptr %1, ptr %5, align 8, !tbaa !28
  call void @llvm.lifetime.start.p0(i64 8, ptr %6) #10
  %8 = load i32, ptr %4, align 4, !tbaa !4
  %9 = icmp ne i32 %8, 0
  br i1 %9, label %10, label %18

10:                                               ; preds = %2
  %11 = load ptr, ptr @config_file, align 8, !tbaa !8
  %12 = call i32 @test_get_libctx(ptr noundef @multi_libctx, ptr noundef null, ptr noundef %11, ptr noundef null, ptr noundef null)
  %13 = icmp ne i32 %12, 0
  %14 = zext i1 %13 to i32
  %15 = call i32 @test_true(ptr noundef @.str.18, i32 noundef 752, ptr noundef @.str.45, i32 noundef %14)
  %16 = icmp ne i32 %15, 0
  br i1 %16, label %18, label %17

17:                                               ; preds = %10
  store i32 0, ptr %3, align 4
  store i32 1, ptr %7, align 4
  br label %50

18:                                               ; preds = %10, %2
  %19 = load ptr, ptr %5, align 8, !tbaa !28
  %20 = icmp ne ptr %19, null
  br i1 %20, label %21, label %49

21:                                               ; preds = %18
  store i64 0, ptr %6, align 8, !tbaa !14
  br label %22

22:                                               ; preds = %45, %21
  %23 = load ptr, ptr %5, align 8, !tbaa !28
  %24 = load i64, ptr %6, align 8, !tbaa !14
  %25 = getelementptr inbounds nuw ptr, ptr %23, i64 %24
  %26 = load ptr, ptr %25, align 8, !tbaa !8
  %27 = icmp ne ptr %26, null
  br i1 %27, label %28, label %48

28:                                               ; preds = %22
  %29 = load i64, ptr %6, align 8, !tbaa !14
  %30 = call i32 @test_size_t_lt(ptr noundef @.str.18, i32 noundef 757, ptr noundef @.str.46, ptr noundef @.str.47, i64 noundef %29, i64 noundef 4)
  %31 = icmp ne i32 %30, 0
  br i1 %31, label %32, label %43

32:                                               ; preds = %28
  %33 = load ptr, ptr @multi_libctx, align 8, !tbaa !20
  %34 = load ptr, ptr %5, align 8, !tbaa !28
  %35 = load i64, ptr %6, align 8, !tbaa !14
  %36 = getelementptr inbounds nuw ptr, ptr %34, i64 %35
  %37 = load ptr, ptr %36, align 8, !tbaa !8
  %38 = call ptr @OSSL_PROVIDER_load(ptr noundef %33, ptr noundef %37)
  %39 = load i64, ptr %6, align 8, !tbaa !14
  %40 = getelementptr inbounds nuw [5 x ptr], ptr @multi_provider, i64 0, i64 %39
  store ptr %38, ptr %40, align 8, !tbaa !16
  %41 = call i32 @test_ptr(ptr noundef @.str.18, i32 noundef 759, ptr noundef @.str.48, ptr noundef %38)
  %42 = icmp ne i32 %41, 0
  br i1 %42, label %44, label %43

43:                                               ; preds = %32, %28
  call void @thead_teardown_libctx()
  store i32 0, ptr %3, align 4
  store i32 1, ptr %7, align 4
  br label %50

44:                                               ; preds = %32
  br label %45

45:                                               ; preds = %44
  %46 = load i64, ptr %6, align 8, !tbaa !14
  %47 = add i64 %46, 1
  store i64 %47, ptr %6, align 8, !tbaa !14
  br label %22, !llvm.loop !30

48:                                               ; preds = %22
  br label %49

49:                                               ; preds = %48, %18
  store i32 1, ptr %3, align 4
  store i32 1, ptr %7, align 4
  br label %50

50:                                               ; preds = %49, %43, %17
  call void @llvm.lifetime.end.p0(i64 8, ptr %6) #10
  %51 = load i32, ptr %3, align 4
  ret i32 %51
}

; Function Attrs: nounwind uwtable
define internal void @multi_intialise() #0 {
  store i32 1, ptr @multi_success, align 4, !tbaa !4
  store ptr null, ptr @multi_libctx, align 8, !tbaa !20
  store i64 0, ptr @multi_num_threads, align 8, !tbaa !14
  call void @llvm.memset.p0.i64(ptr align 16 @multi_threads, i8 0, i64 80, i1 false)
  call void @llvm.memset.p0.i64(ptr align 16 @multi_provider, i8 0, i64 40, i1 false)
  ret void
}

; Function Attrs: nounwind uwtable
define internal i32 @test_multi_load_unload_provider() #0 {
  %1 = alloca ptr, align 8
  %2 = alloca ptr, align 8
  %3 = alloca i32, align 4
  call void @llvm.lifetime.start.p0(i64 8, ptr %1) #10
  store ptr null, ptr %1, align 8, !tbaa !24
  call void @llvm.lifetime.start.p0(i64 8, ptr %2) #10
  store ptr null, ptr %2, align 8, !tbaa !16
  call void @llvm.lifetime.start.p0(i64 4, ptr %3) #10
  store i32 0, ptr %3, align 4, !tbaa !4
  call void @multi_intialise()
  %4 = call i32 @thread_setup_libctx(i32 noundef 1, ptr noundef null)
  %5 = icmp ne i32 %4, 0
  br i1 %5, label %6, label %23

6:                                                ; preds = %0
  %7 = load ptr, ptr @multi_libctx, align 8, !tbaa !20
  %8 = call ptr @OSSL_PROVIDER_load(ptr noundef %7, ptr noundef @.str.54)
  store ptr %8, ptr %2, align 8, !tbaa !16
  %9 = call i32 @test_ptr(ptr noundef @.str.18, i32 noundef 1064, ptr noundef @.str.149, ptr noundef %8)
  %10 = icmp ne i32 %9, 0
  br i1 %10, label %11, label %23

11:                                               ; preds = %6
  %12 = load ptr, ptr @multi_libctx, align 8, !tbaa !20
  %13 = call ptr @EVP_MD_fetch(ptr noundef %12, ptr noundef @.str.53, ptr noundef null)
  store ptr %13, ptr %1, align 8, !tbaa !24
  %14 = call i32 @test_ptr(ptr noundef @.str.18, i32 noundef 1065, ptr noundef @.str.150, ptr noundef %13)
  %15 = icmp ne i32 %14, 0
  br i1 %15, label %16, label %23

16:                                               ; preds = %11
  %17 = load ptr, ptr %2, align 8, !tbaa !16
  %18 = call i32 @OSSL_PROVIDER_unload(ptr noundef %17)
  %19 = icmp ne i32 %18, 0
  %20 = zext i1 %19 to i32
  %21 = call i32 @test_true(ptr noundef @.str.18, i32 noundef 1066, ptr noundef @.str.122, i32 noundef %20)
  %22 = icmp ne i32 %21, 0
  br i1 %22, label %24, label %23

23:                                               ; preds = %16, %11, %6, %0
  br label %39

24:                                               ; preds = %16
  store ptr null, ptr %2, align 8, !tbaa !16
  %25 = call i32 @start_threads(i64 noundef 2, ptr noundef @thread_provider_load_unload)
  %26 = icmp ne i32 %25, 0
  br i1 %26, label %28, label %27

27:                                               ; preds = %24
  br label %39

28:                                               ; preds = %24
  call void @thread_provider_load_unload()
  %29 = call i32 @teardown_threads()
  %30 = icmp ne i32 %29, 0
  br i1 %30, label %31, label %37

31:                                               ; preds = %28
  %32 = load i32, ptr @multi_success, align 4, !tbaa !4
  %33 = icmp ne i32 %32, 0
  %34 = zext i1 %33 to i32
  %35 = call i32 @test_true(ptr noundef @.str.18, i32 noundef 1076, ptr noundef @.str.44, i32 noundef %34)
  %36 = icmp ne i32 %35, 0
  br i1 %36, label %38, label %37

37:                                               ; preds = %31, %28
  br label %39

38:                                               ; preds = %31
  store i32 1, ptr %3, align 4, !tbaa !4
  br label %39

39:                                               ; preds = %38, %37, %27, %23
  %40 = load ptr, ptr %2, align 8, !tbaa !16
  %41 = call i32 @OSSL_PROVIDER_unload(ptr noundef %40)
  %42 = load ptr, ptr %1, align 8, !tbaa !24
  call void @EVP_MD_free(ptr noundef %42)
  call void @thead_teardown_libctx()
  %43 = load i32, ptr %3, align 4, !tbaa !4
  call void @llvm.lifetime.end.p0(i64 4, ptr %3) #10
  call void @llvm.lifetime.end.p0(i64 8, ptr %2) #10
  call void @llvm.lifetime.end.p0(i64 8, ptr %1) #10
  ret i32 %43
}