; Function Attrs: nounwind uwtable
define internal range(i32 0, 2) i32 @test_multi_load_unload_provider() #1 {
  store i1 true, ptr @multi_success, align 4
  store ptr null, ptr @multi_libctx, align 8, !tbaa !16
  store i64 0, ptr @multi_num_threads, align 8, !tbaa !12
  tail call void @llvm.memset.p0.i64(ptr noundef nonnull align 16 dereferenceable(80) @multi_threads, i8 0, i64 80, i1 false)
  tail call void @llvm.memset.p0.i64(ptr noundef nonnull align 16 dereferenceable(40) @multi_provider, i8 0, i64 40, i1 false)
  %1 = load ptr, ptr @config_file, align 8, !tbaa !6
  %2 = tail call i32 @test_get_libctx(ptr noundef nonnull @multi_libctx, ptr noundef null, ptr noundef %1, ptr noundef null, ptr noundef null) #11
  %3 = icmp ne i32 %2, 0
  %4 = zext i1 %3 to i32
  %5 = tail call i32 @test_true(ptr noundef nonnull @.str.18, i32 noundef 752, ptr noundef nonnull @.str.45, i32 noundef %4) #11
  %.not11.i = icmp eq i32 %5, 0
  br i1 %.not11.i, label %teardown_threads.exit, label %thread_setup_libctx.exit

thread_setup_libctx.exit:                         ; preds = %0
  %6 = load ptr, ptr @multi_libctx, align 8, !tbaa !16
  %7 = tail call ptr @OSSL_PROVIDER_load(ptr noundef %6, ptr noundef nonnull @.str.54) #11
  %8 = tail call i32 @test_ptr(ptr noundef nonnull @.str.18, i32 noundef 1064, ptr noundef nonnull @.str.149, ptr noundef %7) #11
  %.not5 = icmp eq i32 %8, 0
  br i1 %.not5, label %teardown_threads.exit, label %9

9:                                                ; preds = %thread_setup_libctx.exit
  %10 = load ptr, ptr @multi_libctx, align 8, !tbaa !16
  %11 = tail call ptr @EVP_MD_fetch(ptr noundef %10, ptr noundef nonnull @.str.53, ptr noundef null) #11
  %12 = tail call i32 @test_ptr(ptr noundef nonnull @.str.18, i32 noundef 1065, ptr noundef nonnull @.str.150, ptr noundef %11) #11
  %.not6 = icmp eq i32 %12, 0
  br i1 %.not6, label %teardown_threads.exit, label %13

13:                                               ; preds = %9
  %14 = tail call i32 @OSSL_PROVIDER_unload(ptr noundef %7) #11
  %15 = icmp ne i32 %14, 0
  %16 = zext i1 %15 to i32
  %17 = tail call i32 @test_true(ptr noundef nonnull @.str.18, i32 noundef 1066, ptr noundef nonnull @.str.122, i32 noundef %16) #11
  %.not7 = icmp eq i32 %17, 0
  br i1 %.not7, label %teardown_threads.exit, label %18

18:                                               ; preds = %13
  %19 = load i64, ptr @multi_num_threads, align 8, !tbaa !12
  %20 = add i64 %19, 2
  %21 = tail call i32 @test_size_t_le(ptr noundef nonnull @.str.18, i32 noundef 780, ptr noundef nonnull @.str.49, ptr noundef nonnull @.str.50, i64 noundef %20, i64 noundef 10) #11
  %.not.i = icmp eq i32 %21, 0
  br i1 %.not.i, label %teardown_threads.exit, label %.preheader.i

22:                                               ; preds = %.preheader.i
  %23 = add nuw nsw i64 %.07.i, 1
  %exitcond.not.i = icmp eq i64 %23, 2
  br i1 %exitcond.not.i, label %start_threads.exit, label %.preheader.i, !llvm.loop !21

.preheader.i:                                     ; preds = %18, %22
  %.07.i = phi i64 [ %23, %22 ], [ 0, %18 ]
  %24 = load i64, ptr @multi_num_threads, align 8, !tbaa !12
  %25 = add i64 %24, 1
  store i64 %25, ptr @multi_num_threads, align 8, !tbaa !12
  %26 = getelementptr inbounds nuw i64, ptr @multi_threads, i64 %24
  %27 = tail call i32 @pthread_create(ptr noundef nonnull %26, ptr noundef null, ptr noundef nonnull @thread_run, ptr noundef nonnull @thread_provider_load_unload) #11
  %28 = icmp eq i32 %27, 0
  %29 = zext i1 %28 to i32
  %30 = tail call i32 @test_true(ptr noundef nonnull @.str.18, i32 noundef 784, ptr noundef nonnull @.str.51, i32 noundef %29) #11
  %.not6.i = icmp eq i32 %30, 0
  br i1 %.not6.i, label %teardown_threads.exit, label %22

start_threads.exit:                               ; preds = %22
  tail call void @thread_provider_load_unload()
  %31 = load i64, ptr @multi_num_threads, align 8, !tbaa !12
  %.not8.i = icmp eq i64 %31, 0
  br i1 %.not8.i, label %.loopexit, label %.lr.ph.i

32:                                               ; preds = %.lr.ph.i
  %33 = add nuw i64 %.05.i11, 1
  %34 = load i64, ptr @multi_num_threads, align 8, !tbaa !12
  %35 = icmp ult i64 %33, %34
  br i1 %35, label %.lr.ph.i, label %.loopexit, !llvm.loop !22

.lr.ph.i:                                         ; preds = %start_threads.exit, %32
  %.05.i11 = phi i64 [ %33, %32 ], [ 0, %start_threads.exit ]
  %36 = getelementptr inbounds nuw [10 x i64], ptr @multi_threads, i64 0, i64 %.05.i11
  %37 = load i64, ptr %36, align 8, !tbaa !12
  %38 = tail call i32 @pthread_join(i64 noundef %37, ptr noundef null) #11
  %39 = icmp eq i32 %38, 0
  %40 = zext i1 %39 to i32
  %41 = tail call i32 @test_true(ptr noundef nonnull @.str.18, i32 noundef 771, ptr noundef nonnull @.str.52, i32 noundef %40) #11
  %.not.i12 = icmp eq i32 %41, 0
  br i1 %.not.i12, label %teardown_threads.exit, label %32

.loopexit:                                        ; preds = %32, %start_threads.exit
  %.b = load i1, ptr @multi_success, align 4
  %42 = zext i1 %.b to i32
  %43 = tail call i32 @test_true(ptr noundef nonnull @.str.18, i32 noundef 1076, ptr noundef nonnull @.str.44, i32 noundef %42) #11
  %.not10 = icmp ne i32 %43, 0
  %spec.select = zext i1 %.not10 to i32
  br label %teardown_threads.exit

teardown_threads.exit:                            ; preds = %.preheader.i, %.lr.ph.i, %18, %0, %.loopexit, %thread_setup_libctx.exit, %9, %13
  %.04 = phi ptr [ %11, %13 ], [ %11, %9 ], [ null, %thread_setup_libctx.exit ], [ %11, %.loopexit ], [ null, %0 ], [ %11, %18 ], [ %11, %.lr.ph.i ], [ %11, %.preheader.i ]
  %.03 = phi ptr [ %7, %13 ], [ %7, %9 ], [ %7, %thread_setup_libctx.exit ], [ null, %.loopexit ], [ null, %0 ], [ null, %18 ], [ null, %.lr.ph.i ], [ null, %.preheader.i ]
  %.0 = phi i32 [ 0, %13 ], [ 0, %9 ], [ 0, %thread_setup_libctx.exit ], [ %spec.select, %.loopexit ], [ 0, %0 ], [ 0, %18 ], [ 0, %.lr.ph.i ], [ 0, %.preheader.i ]
  %44 = tail call i32 @OSSL_PROVIDER_unload(ptr noundef %.03) #11
  tail call void @EVP_MD_free(ptr noundef %.04) #11
  %45 = load ptr, ptr @multi_provider, align 16, !tbaa !24
  %.not4.i = icmp eq ptr %45, null
  br i1 %.not4.i, label %thead_teardown_libctx.exit, label %.lr.ph.i13

.lr.ph.i13:                                       ; preds = %teardown_threads.exit, %.lr.ph.i13
  %46 = phi ptr [ %49, %.lr.ph.i13 ], [ %45, %teardown_threads.exit ]
  %.05.i14 = phi ptr [ %48, %.lr.ph.i13 ], [ @multi_provider, %teardown_threads.exit ]
  %47 = tail call i32 @OSSL_PROVIDER_unload(ptr noundef nonnull %46) #11
  %48 = getelementptr inbounds nuw i8, ptr %.05.i14, i64 8
  %49 = load ptr, ptr %48, align 8, !tbaa !24
  %.not.i15 = icmp eq ptr %49, null
  br i1 %.not.i15, label %thead_teardown_libctx.exit, label %.lr.ph.i13, !llvm.loop !26

thead_teardown_libctx.exit:                       ; preds = %.lr.ph.i13, %teardown_threads.exit
  %50 = load ptr, ptr @multi_libctx, align 8, !tbaa !16
  tail call void @OSSL_LIB_CTX_free(ptr noundef %50) #11
  store i1 true, ptr @multi_success, align 4
  store ptr null, ptr @multi_libctx, align 8, !tbaa !16
  store i64 0, ptr @multi_num_threads, align 8, !tbaa !12
  tail call void @llvm.memset.p0.i64(ptr noundef nonnull align 16 dereferenceable(80) @multi_threads, i8 0, i64 80, i1 false)
  tail call void @llvm.memset.p0.i64(ptr noundef nonnull align 16 dereferenceable(40) @multi_provider, i8 0, i64 40, i1 false)
  ret i32 %.0
}